; ModuleID = 'source-C-CXX/42/1831.c'
source_filename = "source-C-CXX/42/1831.c"
target datalayout = "e-m:e-p270:32:32-p271:32:32-p272:64:64-i64:64-f80:128-n8:16:32:64-S128"
target triple = "x86_64-pc-linux-gnu"

@.str = private unnamed_addr constant [3 x i8] c"%d\00", align 1
@.str.1 = private unnamed_addr constant [7 x i8] c"%d %d\0A\00", align 1

; Function Attrs: nofree nounwind sspstrong uwtable
define dso_local i32 @main() local_unnamed_addr #0 {
  %1 = alloca i32, align 4
  %2 = bitcast i32* %1 to i8*
  call void @llvm.lifetime.start.p0i8(i64 4, i8* nonnull %2) #3
  %3 = call i32 (i8*, ...) @__isoc99_scanf(i8* getelementptr inbounds ([3 x i8], [3 x i8]* @.str, i64 0, i64 0), i32* nonnull %1)
  %4 = load i32, i32* %1, align 4, !tbaa !5
  %5 = icmp slt i32 %4, 6
  br i1 %5, label %38, label %6

6:                                                ; preds = %0
  %7 = lshr i32 %4, 1
  br label %8

8:                                                ; preds = %6, %33
  %9 = phi i32 [ %34, %33 ], [ %4, %6 ]
  %10 = phi i32 [ %36, %33 ], [ %7, %6 ]
  %11 = phi i32 [ %35, %33 ], [ 3, %6 ]
  %12 = sub nsw i32 %9, %11
  %13 = icmp slt i32 %10, 1
  br i1 %13, label %33, label %14

14:                                               ; preds = %8, %24
  %15 = phi i32 [ %25, %24 ], [ 0, %8 ]
  %16 = phi i32 [ %26, %24 ], [ 1, %8 ]
  %17 = urem i32 %11, %16
  %18 = icmp eq i32 %17, 0
  br i1 %18, label %22, label %19

19:                                               ; preds = %14
  %20 = srem i32 %12, %16
  %21 = icmp eq i32 %20, 0
  br i1 %21, label %22, label %24

22:                                               ; preds = %19, %14
  %23 = add nsw i32 %15, 1
  br label %24

24:                                               ; preds = %19, %22
  %25 = phi i32 [ %23, %22 ], [ %15, %19 ]
  %26 = add nuw nsw i32 %16, 2
  %27 = icmp sgt i32 %26, %10
  br i1 %27, label %28, label %14, !llvm.loop !9

28:                                               ; preds = %24
  %29 = icmp eq i32 %25, 2
  br i1 %29, label %30, label %33

30:                                               ; preds = %28
  %31 = call i32 (i8*, ...) @printf(i8* nonnull dereferenceable(1) getelementptr inbounds ([7 x i8], [7 x i8]* @.str.1, i64 0, i64 0), i32 %11, i32 %12)
  %32 = load i32, i32* %1, align 4, !tbaa !5
  br label %33

33:                                               ; preds = %8, %28, %30
  %34 = phi i32 [ %9, %28 ], [ %32, %30 ], [ %9, %8 ]
  %35 = add nuw nsw i32 %11, 2
  %36 = sdiv i32 %34, 2
  %37 = icmp sgt i32 %35, %36
  br i1 %37, label %38, label %8, !llvm.loop !11

38:                                               ; preds = %33, %0
  call void @llvm.lifetime.end.p0i8(i64 4, i8* nonnull %2) #3
  ret i32 0
}

; Function Attrs: argmemonly mustprogress nofree nosync nounwind willreturn
declare void @llvm.lifetime.start.p0i8(i64 immarg, i8* nocapture) #1

; Function Attrs: nofree nounwind
declare noundef i32 @__isoc99_scanf(i8* nocapture noundef readonly, ...) local_unnamed_addr #2

; Function Attrs: nofree nounwind
declare noundef i32 @printf(i8* nocapture noundef readonly, ...) local_unnamed_addr #2

; Function Attrs: argmemonly mustprogress nofree nosync nounwind willreturn
declare void @llvm.lifetime.end.p0i8(i64 immarg, i8* nocapture) #1


!llvm.module.flags = !{!0, !1, !2, !3}
!llvm.ident = !{!4}

!0 = !{i32 1, !"wchar_size", i32 4}
!1 = !{i32 7, !"PIC Level", i32 2}
!2 = !{i32 7, !"PIE Level", i32 2}
!3 = !{i32 7, !"uwtable", i32 1}
!4 = !{!"clang version 13.0.0"}
!5 = !{!6, !6, i64 0}
!6 = !{!"int", !7, i64 0}
!7 = !{!"omnipotent char", !8, i64 0}
!8 = !{!"Simple C/C++ TBAA"}
!9 = distinct !{!9, !10}
!10 = !{!"llvm.loop.mustprogress"}
!11 = distinct !{!11, !10}
